target datalayout = "e-m:e-p270:32:32-p271:32:32-p272:64:64-i64:64-i128:128-f80:128-n8:16:32:64-S128"
target triple = "x86_64-unknown-linux-gnu"

%"class.base::BasicStringPiece" = type { ptr, i64 }

; Function Attrs: mustprogress uwtable
define dso_local void @_ZN3net21QuicClientSessionBase16OnPromiseHeadersEjN4base16BasicStringPieceINSt7__cxx1112basic_stringIcSt11char_traitsIcESaIcEEEEE(ptr noundef nonnull align 8 dereferenceable(2140) %this, i32 noundef %stream_id, ptr %headers_data.coerce0, i64 %headers_data.coerce1) unnamed_addr #0 align 2 {
entry:
  %headers_data = alloca %"class.base::BasicStringPiece", align 8
  %this.addr = alloca ptr, align 8
  %stream_id.addr = alloca i32, align 4
  %stream = alloca ptr, align 8
  %agg.tmp = alloca %"class.base::BasicStringPiece", align 8
  %0 = getelementptr inbounds { ptr, i64 }, ptr %headers_data, i32 0, i32 0
  store ptr %headers_data.coerce0, ptr %0, align 8
  %1 = getelementptr inbounds { ptr, i64 }, ptr %headers_data, i32 0, i32 1
  store i64 %headers_data.coerce1, ptr %1, align 8
  store ptr %this, ptr %this.addr, align 8
  store i32 %stream_id, ptr %stream_id.addr, align 4
  %this1 = load ptr, ptr %this.addr, align 8
  %2 = load i32, ptr %stream_id.addr, align 4
  %call = call noundef ptr @_ZN3net15QuicSpdySession17GetSpdyDataStreamEj(ptr noundef nonnull align 8 dereferenceable(2057) %this1, i32 noundef %2)
  store ptr %call, ptr %stream, align 8
  %3 = load ptr, ptr %stream, align 8
  %tobool = icmp ne ptr %3, null
  br i1 %tobool, label %if.end, label %if.then

if.then:                                          ; preds = %entry
  br label %return

if.end:                                           ; preds = %entry
  %4 = load ptr, ptr %stream, align 8
  call void @llvm.memcpy.p0.p0.i64(ptr align 8 %agg.tmp, ptr align 8 %headers_data, i64 16, i1 false)
  %5 = getelementptr inbounds { ptr, i64 }, ptr %agg.tmp, i32 0, i32 0
  %6 = load ptr, ptr %5, align 8
  %7 = getelementptr inbounds { ptr, i64 }, ptr %agg.tmp, i32 0, i32 1
  %8 = load i64, ptr %7, align 8
  %vtable = load ptr, ptr %4, align 8
  %vfn = getelementptr inbounds ptr, ptr %vtable, i64 19
  %9 = load ptr, ptr %vfn, align 8
  call void %9(ptr noundef nonnull align 8 dereferenceable(664) %4, ptr %6, i64 %8)
  br label %return

return:                                           ; preds = %if.end, %if.then
  ret void
}