; Function Attrs: mustprogress uwtable
define dso_local void @_ZN3net21QuicClientSessionBase16OnPromiseHeadersEjN4base16BasicStringPieceINSt7__cxx1112basic_stringIcSt11char_traitsIcESaIcEEEEE(ptr noundef nonnull align 8 dereferenceable(2140) %this, i32 noundef %stream_id, ptr %headers_data.coerce0, i64 %headers_data.coerce1) unnamed_addr #0 align 2 {
entry:
  %call = tail call noundef ptr @_ZN3net15QuicSpdySession17GetSpdyDataStreamEj(ptr noundef nonnull align 8 dereferenceable(2057) %this, i32 noundef %stream_id)
  %tobool.not = icmp eq ptr %call, null
  br i1 %tobool.not, label %return, label %if.end

if.end:                                           ; preds = %entry
  %vtable = load ptr, ptr %call, align 8
  %vfn = getelementptr inbounds i8, ptr %vtable, i64 152
  %0 = load ptr, ptr %vfn, align 8
  tail call void %0(ptr noundef nonnull align 8 dereferenceable(664) %call, ptr %headers_data.coerce0, i64 %headers_data.coerce1)
  br label %return

return:                                           ; preds = %entry, %if.end
  ret void
}